; Function Attrs: mustprogress uwtable
define internal void @_ZNK12_GLOBAL__N_116itanium_demangle13QualifiedName9printLeftERNS0_12OutputBufferE(ptr noundef nonnull readonly align 8 captures(none) dereferenceable(32) %0, ptr noundef nonnull align 8 dereferenceable(44) %1) unnamed_addr #2 align 2 {
  %3 = getelementptr inbounds nuw i8, ptr %0, i64 16
  %4 = load ptr, ptr %3, align 8, !tbaa !285
  %5 = load ptr, ptr %1, align 8, !tbaa !214
  %6 = getelementptr inbounds nuw i8, ptr %5, i64 16
  %7 = load ptr, ptr %6, align 8
  tail call void %7(ptr noundef nonnull align 8 dereferenceable(44) %1, ptr noundef nonnull align 8 dereferenceable(11) %4)
  %8 = getelementptr inbounds nuw i8, ptr %4, i64 9
  %9 = load i16, ptr %8, align 1
  %.mask3.i = and i16 %9, 192
  %.not.i = icmp eq i16 %.mask3.i, 64
  br i1 %.not.i, label %_ZNK12_GLOBAL__N_116itanium_demangle4Node5printERNS0_12OutputBufferE.exit, label %10

10:                                               ; preds = %2
  %11 = load ptr, ptr %1, align 8, !tbaa !214
  %12 = getelementptr inbounds nuw i8, ptr %11, i64 24
  %13 = load ptr, ptr %12, align 8
  tail call void %13(ptr noundef nonnull align 8 dereferenceable(44) %1, ptr noundef nonnull align 8 dereferenceable(11) %4)
  br label %_ZNK12_GLOBAL__N_116itanium_demangle4Node5printERNS0_12OutputBufferE.exit

_ZNK12_GLOBAL__N_116itanium_demangle4Node5printERNS0_12OutputBufferE.exit: ; preds = %10, %2
  %14 = getelementptr inbounds nuw i8, ptr %1, i64 16
  %15 = load i64, ptr %14, align 8, !tbaa !224
  %16 = add i64 %15, 2
  %17 = getelementptr inbounds nuw i8, ptr %1, i64 24
  %18 = load i64, ptr %17, align 8, !tbaa !225
  %19 = icmp ugt i64 %16, %18
  br i1 %19, label %20, label %._ZN12_GLOBAL__N_116itanium_demangle12OutputBuffer4growEm.exit_crit_edge.i

._ZN12_GLOBAL__N_116itanium_demangle12OutputBuffer4growEm.exit_crit_edge.i: ; preds = %_ZNK12_GLOBAL__N_116itanium_demangle4Node5printERNS0_12OutputBufferE.exit
  %.phi.trans.insert.i = getelementptr inbounds nuw i8, ptr %1, i64 8
  %.pre.i = load ptr, ptr %.phi.trans.insert.i, align 8, !tbaa !222
  br label %_ZN12_GLOBAL__N_116itanium_demangle12OutputBuffer4growEm.exit.i

20:                                               ; preds = %_ZNK12_GLOBAL__N_116itanium_demangle4Node5printERNS0_12OutputBufferE.exit
  %21 = add i64 %15, 994
  %22 = shl i64 %18, 1
  %spec.select.i.i = tail call i64 @llvm.umax.i64(i64 %22, i64 %21)
  store i64 %spec.select.i.i, ptr %17, align 8, !tbaa !225
  %23 = getelementptr inbounds nuw i8, ptr %1, i64 8
  %24 = load ptr, ptr %23, align 8, !tbaa !222
  %25 = tail call ptr @realloc(ptr noundef %24, i64 noundef %spec.select.i.i) #34
  store ptr %25, ptr %23, align 8, !tbaa !222
  %26 = icmp eq ptr %25, null
  br i1 %26, label %27, label %._ZN12_GLOBAL__N_116itanium_demangle12OutputBuffer4growEm.exit_crit_edge4.i

._ZN12_GLOBAL__N_116itanium_demangle12OutputBuffer4growEm.exit_crit_edge4.i: ; preds = %20
  %.pre5.i = load i64, ptr %14, align 8, !tbaa !224
  br label %_ZN12_GLOBAL__N_116itanium_demangle12OutputBuffer4growEm.exit.i

27:                                               ; preds = %20
  tail call void @abort() #33
  unreachable

_ZN12_GLOBAL__N_116itanium_demangle12OutputBuffer4growEm.exit.i: ; preds = %._ZN12_GLOBAL__N_116itanium_demangle12OutputBuffer4growEm.exit_crit_edge4.i, %._ZN12_GLOBAL__N_116itanium_demangle12OutputBuffer4growEm.exit_crit_edge.i
  %28 = phi i64 [ %15, %._ZN12_GLOBAL__N_116itanium_demangle12OutputBuffer4growEm.exit_crit_edge.i ], [ %.pre5.i, %._ZN12_GLOBAL__N_116itanium_demangle12OutputBuffer4growEm.exit_crit_edge4.i ]
  %29 = phi ptr [ %.pre.i, %._ZN12_GLOBAL__N_116itanium_demangle12OutputBuffer4growEm.exit_crit_edge.i ], [ %25, %._ZN12_GLOBAL__N_116itanium_demangle12OutputBuffer4growEm.exit_crit_edge4.i ]
  %30 = getelementptr inbounds nuw i8, ptr %29, i64 %28
  store i16 14906, ptr %30, align 1
  %31 = load i64, ptr %14, align 8, !tbaa !224
  %32 = add i64 %31, 2
  store i64 %32, ptr %14, align 8, !tbaa !224
  %33 = getelementptr inbounds nuw i8, ptr %0, i64 24
  %34 = load ptr, ptr %33, align 8, !tbaa !287
  %35 = load ptr, ptr %1, align 8, !tbaa !214
  %36 = getelementptr inbounds nuw i8, ptr %35, i64 16
  %37 = load ptr, ptr %36, align 8
  tail call void %37(ptr noundef nonnull align 8 dereferenceable(44) %1, ptr noundef nonnull align 8 dereferenceable(11) %34)
  %38 = getelementptr inbounds nuw i8, ptr %34, i64 9
  %39 = load i16, ptr %38, align 1
  %.mask3.i5 = and i16 %39, 192
  %.not.i6 = icmp eq i16 %.mask3.i5, 64
  br i1 %.not.i6, label %_ZNK12_GLOBAL__N_116itanium_demangle4Node5printERNS0_12OutputBufferE.exit7, label %40

40:                                               ; preds = %_ZN12_GLOBAL__N_116itanium_demangle12OutputBuffer4growEm.exit.i
  %41 = load ptr, ptr %1, align 8, !tbaa !214
  %42 = getelementptr inbounds nuw i8, ptr %41, i64 24
  %43 = load ptr, ptr %42, align 8
  tail call void %43(ptr noundef nonnull align 8 dereferenceable(44) %1, ptr noundef nonnull align 8 dereferenceable(11) %34)
  br label %_ZNK12_GLOBAL__N_116itanium_demangle4Node5printERNS0_12OutputBufferE.exit7

_ZNK12_GLOBAL__N_116itanium_demangle4Node5printERNS0_12OutputBufferE.exit7: ; preds = %_ZN12_GLOBAL__N_116itanium_demangle12OutputBuffer4growEm.exit.i, %40
  ret void
}